target datalayout = "e-m:e-p270:32:32-p271:32:32-p272:64:64-i64:64-i128:128-f80:128-n8:16:32:64-S128"
target triple = "x86_64-pc-linux-gnu"

%struct.opj_j2k = type { i32, %union.anon, ptr, ptr, %struct.opj_cp, ptr, ptr, ptr, i32, ptr, ptr, i32, i32, i32 }
%union.anon = type { %struct.opj_j2k_dec }
%struct.opj_j2k_dec = type { i32, ptr, ptr, i32, i32, i32, i32, i32, i32, i32, i64, i32, i32, ptr, %struct.opj_j2k_tlm_info, i32, i32, ptr, i8 }
%struct.opj_j2k_tlm_info = type { i32, ptr, i32 }
%struct.opj_cp = type { i16, i32, i32, i32, i32, ptr, i32, i32, i32, ptr, ptr, i32, i32, ptr, ptr, ptr, i32, i32, i32, ptr, %union.anon.0, i32, i8 }
%union.anon.0 = type { %struct.opj_encoding_param }
%struct.opj_encoding_param = type { i32, i32, ptr, i8, i32, i8 }
%struct.opj_codestream_index = type { i64, i64, i64, i32, ptr, i32, i32, ptr }
%struct.opj_tile_index = type { i32, i32, i32, i32, ptr, i32, ptr, i32, i32, ptr }

; Function Attrs: nounwind uwtable
define internal i32 @opj_j2k_allocate_tile_element_cstr_index(ptr noundef %0) #0 {
  %2 = alloca i32, align 4
  %3 = alloca ptr, align 8
  %4 = alloca i32, align 4
  %5 = alloca i32, align 4
  store ptr %0, ptr %3, align 8, !tbaa !14
  call void @llvm.lifetime.start.p0(i64 4, ptr %4) #10
  store i32 0, ptr %4, align 4, !tbaa !3
  %6 = load ptr, ptr %3, align 8, !tbaa !14
  %7 = getelementptr inbounds nuw %struct.opj_j2k, ptr %6, i32 0, i32 4
  %8 = getelementptr inbounds nuw %struct.opj_cp, ptr %7, i32 0, i32 6
  %9 = load i32, ptr %8, align 8, !tbaa !243
  %10 = load ptr, ptr %3, align 8, !tbaa !14
  %11 = getelementptr inbounds nuw %struct.opj_j2k, ptr %10, i32 0, i32 4
  %12 = getelementptr inbounds nuw %struct.opj_cp, ptr %11, i32 0, i32 7
  %13 = load i32, ptr %12, align 4, !tbaa !244
  %14 = mul i32 %9, %13
  %15 = load ptr, ptr %3, align 8, !tbaa !14
  %16 = getelementptr inbounds nuw %struct.opj_j2k, ptr %15, i32 0, i32 7
  %17 = load ptr, ptr %16, align 8, !tbaa !41
  %18 = getelementptr inbounds nuw %struct.opj_codestream_index, ptr %17, i32 0, i32 6
  store i32 %14, ptr %18, align 4, !tbaa !233
  %19 = load ptr, ptr %3, align 8, !tbaa !14
  %20 = getelementptr inbounds nuw %struct.opj_j2k, ptr %19, i32 0, i32 7
  %21 = load ptr, ptr %20, align 8, !tbaa !41
  %22 = getelementptr inbounds nuw %struct.opj_codestream_index, ptr %21, i32 0, i32 6
  %23 = load i32, ptr %22, align 4, !tbaa !233
  %24 = zext i32 %23 to i64
  %25 = call ptr @opj_calloc(i64 noundef %24, i64 noundef 56)
  %26 = load ptr, ptr %3, align 8, !tbaa !14
  %27 = getelementptr inbounds nuw %struct.opj_j2k, ptr %26, i32 0, i32 7
  %28 = load ptr, ptr %27, align 8, !tbaa !41
  %29 = getelementptr inbounds nuw %struct.opj_codestream_index, ptr %28, i32 0, i32 7
  store ptr %25, ptr %29, align 8, !tbaa !232
  %30 = load ptr, ptr %3, align 8, !tbaa !14
  %31 = getelementptr inbounds nuw %struct.opj_j2k, ptr %30, i32 0, i32 7
  %32 = load ptr, ptr %31, align 8, !tbaa !41
  %33 = getelementptr inbounds nuw %struct.opj_codestream_index, ptr %32, i32 0, i32 7
  %34 = load ptr, ptr %33, align 8, !tbaa !232
  %35 = icmp ne ptr %34, null
  br i1 %35, label %37, label %36

36:                                               ; preds = %1
  store i32 0, ptr %2, align 4
  store i32 1, ptr %5, align 4
  br label %103

37:                                               ; preds = %1
  store i32 0, ptr %4, align 4, !tbaa !3
  br label %38

38:                                               ; preds = %99, %37
  %39 = load i32, ptr %4, align 4, !tbaa !3
  %40 = load ptr, ptr %3, align 8, !tbaa !14
  %41 = getelementptr inbounds nuw %struct.opj_j2k, ptr %40, i32 0, i32 7
  %42 = load ptr, ptr %41, align 8, !tbaa !41
  %43 = getelementptr inbounds nuw %struct.opj_codestream_index, ptr %42, i32 0, i32 6
  %44 = load i32, ptr %43, align 4, !tbaa !233
  %45 = icmp ult i32 %39, %44
  br i1 %45, label %46, label %102

46:                                               ; preds = %38
  %47 = load ptr, ptr %3, align 8, !tbaa !14
  %48 = getelementptr inbounds nuw %struct.opj_j2k, ptr %47, i32 0, i32 7
  %49 = load ptr, ptr %48, align 8, !tbaa !41
  %50 = getelementptr inbounds nuw %struct.opj_codestream_index, ptr %49, i32 0, i32 7
  %51 = load ptr, ptr %50, align 8, !tbaa !232
  %52 = load i32, ptr %4, align 4, !tbaa !3
  %53 = zext i32 %52 to i64
  %54 = getelementptr inbounds nuw %struct.opj_tile_index, ptr %51, i64 %53
  %55 = getelementptr inbounds nuw %struct.opj_tile_index, ptr %54, i32 0, i32 7
  store i32 100, ptr %55, align 8, !tbaa !278
  %56 = load ptr, ptr %3, align 8, !tbaa !14
  %57 = getelementptr inbounds nuw %struct.opj_j2k, ptr %56, i32 0, i32 7
  %58 = load ptr, ptr %57, align 8, !tbaa !41
  %59 = getelementptr inbounds nuw %struct.opj_codestream_index, ptr %58, i32 0, i32 7
  %60 = load ptr, ptr %59, align 8, !tbaa !232
  %61 = load i32, ptr %4, align 4, !tbaa !3
  %62 = zext i32 %61 to i64
  %63 = getelementptr inbounds nuw %struct.opj_tile_index, ptr %60, i64 %62
  %64 = getelementptr inbounds nuw %struct.opj_tile_index, ptr %63, i32 0, i32 5
  store i32 0, ptr %64, align 8, !tbaa !277
  %65 = load ptr, ptr %3, align 8, !tbaa !14
  %66 = getelementptr inbounds nuw %struct.opj_j2k, ptr %65, i32 0, i32 7
  %67 = load ptr, ptr %66, align 8, !tbaa !41
  %68 = getelementptr inbounds nuw %struct.opj_codestream_index, ptr %67, i32 0, i32 7
  %69 = load ptr, ptr %68, align 8, !tbaa !232
  %70 = load i32, ptr %4, align 4, !tbaa !3
  %71 = zext i32 %70 to i64
  %72 = getelementptr inbounds nuw %struct.opj_tile_index, ptr %69, i64 %71
  %73 = getelementptr inbounds nuw %struct.opj_tile_index, ptr %72, i32 0, i32 7
  %74 = load i32, ptr %73, align 8, !tbaa !278
  %75 = zext i32 %74 to i64
  %76 = call ptr @opj_calloc(i64 noundef %75, i64 noundef 24)
  %77 = load ptr, ptr %3, align 8, !tbaa !14
  %78 = getelementptr inbounds nuw %struct.opj_j2k, ptr %77, i32 0, i32 7
  %79 = load ptr, ptr %78, align 8, !tbaa !41
  %80 = getelementptr inbounds nuw %struct.opj_codestream_index, ptr %79, i32 0, i32 7
  %81 = load ptr, ptr %80, align 8, !tbaa !232
  %82 = load i32, ptr %4, align 4, !tbaa !3
  %83 = zext i32 %82 to i64
  %84 = getelementptr inbounds nuw %struct.opj_tile_index, ptr %81, i64 %83
  %85 = getelementptr inbounds nuw %struct.opj_tile_index, ptr %84, i32 0, i32 6
  store ptr %76, ptr %85, align 8, !tbaa !239
  %86 = load ptr, ptr %3, align 8, !tbaa !14
  %87 = getelementptr inbounds nuw %struct.opj_j2k, ptr %86, i32 0, i32 7
  %88 = load ptr, ptr %87, align 8, !tbaa !41
  %89 = getelementptr inbounds nuw %struct.opj_codestream_index, ptr %88, i32 0, i32 7
  %90 = load ptr, ptr %89, align 8, !tbaa !232
  %91 = load i32, ptr %4, align 4, !tbaa !3
  %92 = zext i32 %91 to i64
  %93 = getelementptr inbounds nuw %struct.opj_tile_index, ptr %90, i64 %92
  %94 = getelementptr inbounds nuw %struct.opj_tile_index, ptr %93, i32 0, i32 6
  %95 = load ptr, ptr %94, align 8, !tbaa !239
  %96 = icmp ne ptr %95, null
  br i1 %96, label %98, label %97

97:                                               ; preds = %46
  store i32 0, ptr %2, align 4
  store i32 1, ptr %5, align 4
  br label %103

98:                                               ; preds = %46
  br label %99

99:                                               ; preds = %98
  %100 = load i32, ptr %4, align 4, !tbaa !3
  %101 = add i32 %100, 1
  store i32 %101, ptr %4, align 4, !tbaa !3
  br label %38, !llvm.loop !468

102:                                              ; preds = %38
  store i32 1, ptr %2, align 4
  store i32 1, ptr %5, align 4
  br label %103

103:                                              ; preds = %102, %97, %36
  call void @llvm.lifetime.end.p0(i64 4, ptr %4) #10
  %104 = load i32, ptr %2, align 4
  ret i32 %104
}