; Function Attrs: nounwind uwtable
define internal fastcc range(i32 0, 2) i32 @opj_j2k_allocate_tile_element_cstr_index(ptr noundef readonly captures(none) %0) unnamed_addr #3 {
  %2 = getelementptr inbounds nuw i8, ptr %0, i64 184
  %3 = load i32, ptr %2, align 8, !tbaa !212
  %4 = getelementptr inbounds nuw i8, ptr %0, i64 188
  %5 = load i32, ptr %4, align 4, !tbaa !213
  %6 = mul i32 %5, %3
  %7 = getelementptr inbounds nuw i8, ptr %0, i64 328
  %8 = load ptr, ptr %7, align 8, !tbaa !46
  %9 = getelementptr inbounds nuw i8, ptr %8, i64 44
  store i32 %6, ptr %9, align 4, !tbaa !204
  %10 = zext i32 %6 to i64
  %11 = tail call ptr @opj_calloc(i64 noundef %10, i64 noundef 56) #21
  %12 = load ptr, ptr %7, align 8, !tbaa !46
  %13 = getelementptr inbounds nuw i8, ptr %12, i64 48
  store ptr %11, ptr %13, align 8, !tbaa !203
  %.not = icmp eq ptr %11, null
  br i1 %.not, label %.loopexit, label %.preheader

.preheader:                                       ; preds = %1
  %14 = getelementptr inbounds nuw i8, ptr %12, i64 44
  %15 = load i32, ptr %14, align 4, !tbaa !204
  %.not24 = icmp eq i32 %15, 0
  br i1 %.not24, label %.loopexit, label %.lr.ph

16:                                               ; preds = %.lr.ph
  %indvars.iv.next = add nuw nsw i64 %indvars.iv, 1
  %17 = getelementptr inbounds nuw i8, ptr %25, i64 44
  %18 = load i32, ptr %17, align 4, !tbaa !204
  %19 = zext i32 %18 to i64
  %20 = icmp samesign ult i64 %indvars.iv.next, %19
  br i1 %20, label %.lr.ph, label %.loopexit, !llvm.loop !438

.lr.ph:                                           ; preds = %.preheader, %16
  %21 = phi ptr [ %27, %16 ], [ %11, %.preheader ]
  %indvars.iv = phi i64 [ %indvars.iv.next, %16 ], [ 0, %.preheader ]
  %22 = getelementptr inbounds nuw %struct.opj_tile_index, ptr %21, i64 %indvars.iv, i32 7
  store i32 100, ptr %22, align 8, !tbaa !222
  %23 = getelementptr inbounds nuw %struct.opj_tile_index, ptr %21, i64 %indvars.iv, i32 5
  store i32 0, ptr %23, align 8, !tbaa !221
  %24 = tail call ptr @opj_calloc(i64 noundef 100, i64 noundef 24) #21
  %25 = load ptr, ptr %7, align 8, !tbaa !46
  %26 = getelementptr inbounds nuw i8, ptr %25, i64 48
  %27 = load ptr, ptr %26, align 8, !tbaa !203
  %28 = getelementptr inbounds nuw %struct.opj_tile_index, ptr %27, i64 %indvars.iv, i32 6
  store ptr %24, ptr %28, align 8, !tbaa !210
  %.not20 = icmp eq ptr %24, null
  br i1 %.not20, label %.loopexit, label %16

.loopexit:                                        ; preds = %.lr.ph, %16, %.preheader, %1
  %.019 = phi i32 [ 0, %1 ], [ 1, %.preheader ], [ 0, %.lr.ph ], [ 1, %16 ]
  ret i32 %.019
}